; Function Attrs: nounwind uwtable
define internal ptr @gen_sizeof(ptr noundef readonly captures(none) %0, ptr readnone captures(none) %1) #2 {
  %3 = getelementptr i8, ptr %0, i64 72
  %.val = load i64, ptr %3, align 8, !tbaa !4
  %4 = inttoptr i64 %.val to ptr
  %5 = getelementptr i8, ptr %4, i64 76
  %.val3 = load i32, ptr %5, align 4, !tbaa !121
  %6 = add i32 %.val3, -10
  %7 = sext i32 %6 to i64
  %8 = shl nsw i64 %7, 3
  %9 = add nsw i64 %8, 152
  %10 = tail call ptr @PyLong_FromSsize_t(i64 noundef %9) #8
  ret ptr %10
}